target datalayout = "e-m:e-p270:32:32-p271:32:32-p272:64:64-i64:64-i128:128-f80:128-n8:16:32:64-S128"
target triple = "x86_64-unknown-linux-gnu"

%class.obj_ref = type { ptr, ptr }
%class.ref_vector = type { %class.ref_vector_core }
%class.ref_vector_core = type { %class.ref_manager_wrapper, %class.ptr_vector }
%class.ref_manager_wrapper = type { ptr }
%class.ptr_vector = type { %class.vector }
%class.vector = type { ptr }
%class.obj_ref.1 = type { ptr, ptr }
%class.array_util = type { %class.array_recognizers, ptr }
%class.array_recognizers = type { i32 }
%class.svector.21 = type { %class.vector.22 }
%class.vector.22 = type { ptr }
%class.ref_vector_core.33 = type { %class.ref_manager_wrapper.34, %class.ptr_vector.35 }
%class.ref_manager_wrapper.34 = type { ptr }
%class.ptr_vector.35 = type { %class.vector.36 }
%class.vector.36 = type { ptr }
%class.arith_util = type { ptr, ptr }
%class.th_rewriter = type { ptr, %class.params_ref }
%class.params_ref = type { ptr }
%class.ref_vector.32 = type { %class.ref_vector_core.33 }
%class.obj_map.62 = type { %class.core_hashtable.63 }
%class.core_hashtable.63 = type <{ ptr, i32, i32, i32, [4 x i8] }>
%"class.spacer_qe::array_project_eqs_util" = type { ptr, %class.array_util, %class.ref, %class.obj_ref.1, %class.ast_mark, %class.obj_ref, %class.expr_safe_replace, %class.expr_safe_replace, %class.ref_vector, %class.ref_vector, %class.ref_vector.32, %class.model_evaluator_array_util }
%class.ref = type { ptr }
%class.ast_mark = type { ptr, %class.obj_mark, %class.obj_mark.72 }
%class.obj_mark = type { %struct.default_t2uint, %class.bit_vector }
%struct.default_t2uint = type { i8 }
%class.bit_vector = type { i32, i32, ptr }
%class.obj_mark.72 = type { %"struct.ast_mark::decl2uint", %class.bit_vector }
%"struct.ast_mark::decl2uint" = type { i8 }
%class.expr_safe_replace = type { ptr, %class.ref_vector, %class.ref_vector, %class.svector.21, %class.ptr_vector, %class.ptr_vector, %class.ref_vector, %"class.std::unordered_map" }
%"class.std::unordered_map" = type { %"class.std::_Hashtable" }
%"class.std::_Hashtable" = type { ptr, i64, %"struct.std::__detail::_Hash_node_base", i64, %"struct.std::__detail::_Prime_rehash_policy", ptr }
%"struct.std::__detail::_Hash_node_base" = type { ptr }
%"struct.std::__detail::_Prime_rehash_policy" = type { float, i64 }
%class.model_evaluator_array_util = type { ptr, %class.array_util }
%"class.spacer_qe::array_select_reducer" = type <{ ptr, %class.array_util, %class.obj_map.62, %class.ref_vector, %class.ref_vector, %class.ref, %class.model_evaluator_array_util, %class.th_rewriter, %class.ast_mark, %class.ast_mark, i8, [7 x i8] }>
%"class.spacer_qe::array_project_selects_util" = type { ptr, %class.array_util, %class.arith_util, %class.obj_map.75, %class.ref_vector, %class.ref_vector, %class.ref_vector.32, %class.ref_vector, %class.ref, %class.model_evaluator_array_util, %class.expr_safe_replace, %class.ast_mark }
%class.obj_map.75 = type { %class.core_hashtable.76 }
%class.core_hashtable.76 = type <{ ptr, i32, i32, i32, [4 x i8] }>

; Function Attrs: mustprogress nounwind uwtable
define linkonce_odr hidden noundef nonnull align 8 dereferenceable(976) ptr @_ZNK10ref_vectorI3app11ast_managerE11get_managerEv(ptr noundef nonnull align 8 dereferenceable(16) %this) #5 comdat align 2 {
entry:
  %this.addr = alloca ptr, align 8
  store ptr %this, ptr %this.addr, align 8
  %this1 = load ptr, ptr %this.addr, align 8
  %m_manager = getelementptr inbounds %class.ref_manager_wrapper.34, ptr %this1, i32 0, i32 0
  %0 = load ptr, ptr %m_manager, align 8
  ret ptr %0
}

; Function Attrs: mustprogress uwtable
define hidden void @_ZN9spacer_qe21array_project_selectsER5modelR10ref_vectorI3app11ast_managerER7obj_refI4exprS4_ES6_(ptr noundef nonnull align 8 dereferenceable(160) %mdl, ptr noundef nonnull align 8 dereferenceable(16) %arr_vars, ptr noundef nonnull align 8 dereferenceable(16) %fml, ptr noundef nonnull align 8 dereferenceable(16) %aux_vars) #4 personality ptr @__gxx_personality_v0 {
entry:
  %mdl.addr = alloca ptr, align 8
  %arr_vars.addr = alloca ptr, align 8
  %fml.addr = alloca ptr, align 8
  %aux_vars.addr = alloca ptr, align 8
  %m = alloca ptr, align 8
  %ap = alloca %"class.spacer_qe::array_project_selects_util", align 8
  %exn.slot = alloca ptr, align 8
  %ehselector.slot = alloca i32, align 4
  store ptr %mdl, ptr %mdl.addr, align 8
  store ptr %arr_vars, ptr %arr_vars.addr, align 8
  store ptr %fml, ptr %fml.addr, align 8
  store ptr %aux_vars, ptr %aux_vars.addr, align 8
  %0 = load ptr, ptr %arr_vars.addr, align 8
  %call = call noundef nonnull align 8 dereferenceable(976) ptr @_ZNK10ref_vectorI3app11ast_managerE11get_managerEv(ptr noundef nonnull align 8 dereferenceable(16) %0)
  store ptr %call, ptr %m, align 8
  %1 = load ptr, ptr %m, align 8
  call void @_ZN9spacer_qe26array_project_selects_utilC2ER11ast_manager(ptr noundef nonnull align 8 dereferenceable(352) %ap, ptr noundef nonnull align 8 dereferenceable(976) %1)
  %2 = load ptr, ptr %mdl.addr, align 8
  %3 = load ptr, ptr %arr_vars.addr, align 8
  %4 = load ptr, ptr %fml.addr, align 8
  %5 = load ptr, ptr %aux_vars.addr, align 8
  invoke void @_ZN9spacer_qe26array_project_selects_utilclER5modelR10ref_vectorI3app11ast_managerER7obj_refI4exprS5_ES7_(ptr noundef nonnull align 8 dereferenceable(352) %ap, ptr noundef nonnull align 8 dereferenceable(160) %2, ptr noundef nonnull align 8 dereferenceable(16) %3, ptr noundef nonnull align 8 dereferenceable(16) %4, ptr noundef nonnull align 8 dereferenceable(16) %5)
          to label %invoke.cont unwind label %lpad

invoke.cont:                                      ; preds = %entry
  call void @_ZN9spacer_qe26array_project_selects_utilD2Ev(ptr noundef nonnull align 8 dereferenceable(352) %ap) #3
  ret void

lpad:                                             ; preds = %entry
  %6 = landingpad { ptr, i32 }
          cleanup
  %7 = extractvalue { ptr, i32 } %6, 0
  store ptr %7, ptr %exn.slot, align 8
  %8 = extractvalue { ptr, i32 } %6, 1
  store i32 %8, ptr %ehselector.slot, align 4
  call void @_ZN9spacer_qe26array_project_selects_utilD2Ev(ptr noundef nonnull align 8 dereferenceable(352) %ap) #3
  br label %eh.resume

eh.resume:                                        ; preds = %lpad
  %exn = load ptr, ptr %exn.slot, align 8
  %sel = load i32, ptr %ehselector.slot, align 4
  %lpad.val = insertvalue { ptr, i32 } poison, ptr %exn, 0
  %lpad.val1 = insertvalue { ptr, i32 } %lpad.val, i32 %sel, 1
  resume { ptr, i32 } %lpad.val1
}

; Function Attrs: mustprogress uwtable
define hidden void @_ZN9spacer_qe20reduce_array_selectsER5modelRK10ref_vectorI3app11ast_managerER7obj_refI4exprS4_Eb(ptr noundef nonnull align 8 dereferenceable(160) %mdl, ptr noundef nonnull align 8 dereferenceable(16) %arr_vars, ptr noundef nonnull align 8 dereferenceable(16) %fml, i1 noundef zeroext %reduce_all_selects) #4 personality ptr @__gxx_personality_v0 {
entry:
  %mdl.addr = alloca ptr, align 8
  %arr_vars.addr = alloca ptr, align 8
  %fml.addr = alloca ptr, align 8
  %reduce_all_selects.addr = alloca i8, align 1
  %m = alloca ptr, align 8
  %ap = alloca %"class.spacer_qe::array_select_reducer", align 8
  %exn.slot = alloca ptr, align 8
  %ehselector.slot = alloca i32, align 4
  store ptr %mdl, ptr %mdl.addr, align 8
  store ptr %arr_vars, ptr %arr_vars.addr, align 8
  store ptr %fml, ptr %fml.addr, align 8
  %frombool = zext i1 %reduce_all_selects to i8
  store i8 %frombool, ptr %reduce_all_selects.addr, align 1
  %0 = load ptr, ptr %arr_vars.addr, align 8
  %call = call noundef nonnull align 8 dereferenceable(976) ptr @_ZNK10ref_vectorI3app11ast_managerE11get_managerEv(ptr noundef nonnull align 8 dereferenceable(16) %0)
  store ptr %call, ptr %m, align 8
  %1 = load ptr, ptr %m, align 8
  call void @_ZN9spacer_qe20array_select_reducerC2ER11ast_manager(ptr noundef nonnull align 8 dereferenceable(241) %ap, ptr noundef nonnull align 8 dereferenceable(976) %1)
  %2 = load ptr, ptr %mdl.addr, align 8
  %3 = load ptr, ptr %arr_vars.addr, align 8
  %4 = load ptr, ptr %fml.addr, align 8
  %5 = load i8, ptr %reduce_all_selects.addr, align 1
  %tobool = trunc i8 %5 to i1
  invoke void @_ZN9spacer_qe20array_select_reducerclER5modelRK10ref_vectorI3app11ast_managerER7obj_refI4exprS5_Eb(ptr noundef nonnull align 8 dereferenceable(241) %ap, ptr noundef nonnull align 8 dereferenceable(160) %2, ptr noundef nonnull align 8 dereferenceable(16) %3, ptr noundef nonnull align 8 dereferenceable(16) %4, i1 noundef zeroext %tobool)
          to label %invoke.cont unwind label %lpad

invoke.cont:                                      ; preds = %entry
  call void @_ZN9spacer_qe20array_select_reducerD2Ev(ptr noundef nonnull align 8 dereferenceable(241) %ap) #3
  ret void

lpad:                                             ; preds = %entry
  %6 = landingpad { ptr, i32 }
          cleanup
  %7 = extractvalue { ptr, i32 } %6, 0
  store ptr %7, ptr %exn.slot, align 8
  %8 = extractvalue { ptr, i32 } %6, 1
  store i32 %8, ptr %ehselector.slot, align 4
  call void @_ZN9spacer_qe20array_select_reducerD2Ev(ptr noundef nonnull align 8 dereferenceable(241) %ap) #3
  br label %eh.resume

eh.resume:                                        ; preds = %lpad
  %exn = load ptr, ptr %exn.slot, align 8
  %sel = load i32, ptr %ehselector.slot, align 4
  %lpad.val = insertvalue { ptr, i32 } poison, ptr %exn, 0
  %lpad.val1 = insertvalue { ptr, i32 } %lpad.val, i32 %sel, 1
  resume { ptr, i32 } %lpad.val1
}

; Function Attrs: mustprogress uwtable
define hidden void @_ZN9spacer_qe17array_project_eqsER5modelR10ref_vectorI3app11ast_managerER7obj_refI4exprS4_ES6_(ptr noundef nonnull align 8 dereferenceable(160) %mdl, ptr noundef nonnull align 8 dereferenceable(16) %arr_vars, ptr noundef nonnull align 8 dereferenceable(16) %fml, ptr noundef nonnull align 8 dereferenceable(16) %aux_vars) #4 personality ptr @__gxx_personality_v0 {
entry:
  %mdl.addr = alloca ptr, align 8
  %arr_vars.addr = alloca ptr, align 8
  %fml.addr = alloca ptr, align 8
  %aux_vars.addr = alloca ptr, align 8
  %m = alloca ptr, align 8
  %ap = alloca %"class.spacer_qe::array_project_eqs_util", align 8
  %exn.slot = alloca ptr, align 8
  %ehselector.slot = alloca i32, align 4
  store ptr %mdl, ptr %mdl.addr, align 8
  store ptr %arr_vars, ptr %arr_vars.addr, align 8
  store ptr %fml, ptr %fml.addr, align 8
  store ptr %aux_vars, ptr %aux_vars.addr, align 8
  %0 = load ptr, ptr %arr_vars.addr, align 8
  %call = call noundef nonnull align 8 dereferenceable(976) ptr @_ZNK10ref_vectorI3app11ast_managerE11get_managerEv(ptr noundef nonnull align 8 dereferenceable(16) %0)
  store ptr %call, ptr %m, align 8
  %1 = load ptr, ptr %m, align 8
  call void @_ZN9spacer_qe22array_project_eqs_utilC2ER11ast_manager(ptr noundef nonnull align 8 dereferenceable(464) %ap, ptr noundef nonnull align 8 dereferenceable(976) %1)
  %2 = load ptr, ptr %mdl.addr, align 8
  %3 = load ptr, ptr %arr_vars.addr, align 8
  %4 = load ptr, ptr %fml.addr, align 8
  %5 = load ptr, ptr %aux_vars.addr, align 8
  invoke void @_ZN9spacer_qe22array_project_eqs_utilclER5modelR10ref_vectorI3app11ast_managerER7obj_refI4exprS5_ES7_(ptr noundef nonnull align 8 dereferenceable(464) %ap, ptr noundef nonnull align 8 dereferenceable(160) %2, ptr noundef nonnull align 8 dereferenceable(16) %3, ptr noundef nonnull align 8 dereferenceable(16) %4, ptr noundef nonnull align 8 dereferenceable(16) %5)
          to label %invoke.cont unwind label %lpad

invoke.cont:                                      ; preds = %entry
  call void @_ZN9spacer_qe22array_project_eqs_utilD2Ev(ptr noundef nonnull align 8 dereferenceable(464) %ap) #3
  ret void

lpad:                                             ; preds = %entry
  %6 = landingpad { ptr, i32 }
          cleanup
  %7 = extractvalue { ptr, i32 } %6, 0
  store ptr %7, ptr %exn.slot, align 8
  %8 = extractvalue { ptr, i32 } %6, 1
  store i32 %8, ptr %ehselector.slot, align 4
  call void @_ZN9spacer_qe22array_project_eqs_utilD2Ev(ptr noundef nonnull align 8 dereferenceable(464) %ap) #3
  br label %eh.resume

eh.resume:                                        ; preds = %lpad
  %exn = load ptr, ptr %exn.slot, align 8
  %sel = load i32, ptr %ehselector.slot, align 4
  %lpad.val = insertvalue { ptr, i32 } poison, ptr %exn, 0
  %lpad.val1 = insertvalue { ptr, i32 } %lpad.val, i32 %sel, 1
  resume { ptr, i32 } %lpad.val1
}

; Function Attrs: mustprogress uwtable
define hidden void @_ZN9spacer_qe13array_projectER5modelR10ref_vectorI3app11ast_managerER7obj_refI4exprS4_ES6_b(ptr noundef nonnull align 8 dereferenceable(160) %mdl, ptr noundef nonnull align 8 dereferenceable(16) %arr_vars, ptr noundef nonnull align 8 dereferenceable(16) %fml, ptr noundef nonnull align 8 dereferenceable(16) %aux_vars, i1 noundef zeroext %reduce_all_selects) #4 {
entry:
  %mdl.addr = alloca ptr, align 8
  %arr_vars.addr = alloca ptr, align 8
  %fml.addr = alloca ptr, align 8
  %aux_vars.addr = alloca ptr, align 8
  %reduce_all_selects.addr = alloca i8, align 1
  store ptr %mdl, ptr %mdl.addr, align 8
  store ptr %arr_vars, ptr %arr_vars.addr, align 8
  store ptr %fml, ptr %fml.addr, align 8
  store ptr %aux_vars, ptr %aux_vars.addr, align 8
  %frombool = zext i1 %reduce_all_selects to i8
  store i8 %frombool, ptr %reduce_all_selects.addr, align 1
  %0 = load ptr, ptr %mdl.addr, align 8
  %1 = load ptr, ptr %arr_vars.addr, align 8
  %2 = load ptr, ptr %fml.addr, align 8
  %3 = load ptr, ptr %aux_vars.addr, align 8
  call void @_ZN9spacer_qe17array_project_eqsER5modelR10ref_vectorI3app11ast_managerER7obj_refI4exprS4_ES6_(ptr noundef nonnull align 8 dereferenceable(160) %0, ptr noundef nonnull align 8 dereferenceable(16) %1, ptr noundef nonnull align 8 dereferenceable(16) %2, ptr noundef nonnull align 8 dereferenceable(16) %3)
  %4 = load i8, ptr %reduce_all_selects.addr, align 1
  %tobool = trunc i8 %4 to i1
  br i1 %tobool, label %if.then, label %if.else

if.then:                                          ; preds = %entry
  %5 = load ptr, ptr %mdl.addr, align 8
  %6 = load ptr, ptr %fml.addr, align 8
  call void @_ZN9spacer_qe20reduce_array_selectsER5modelR7obj_refI4expr11ast_managerE(ptr noundef nonnull align 8 dereferenceable(160) %5, ptr noundef nonnull align 8 dereferenceable(16) %6)
  br label %if.end

if.else:                                          ; preds = %entry
  %7 = load ptr, ptr %mdl.addr, align 8
  %8 = load ptr, ptr %arr_vars.addr, align 8
  %9 = load ptr, ptr %fml.addr, align 8
  call void @_ZN9spacer_qe20reduce_array_selectsER5modelRK10ref_vectorI3app11ast_managerER7obj_refI4exprS4_Eb(ptr noundef nonnull align 8 dereferenceable(160) %7, ptr noundef nonnull align 8 dereferenceable(16) %8, ptr noundef nonnull align 8 dereferenceable(16) %9, i1 noundef zeroext false)
  br label %if.end

if.end:                                           ; preds = %if.else, %if.then
  %10 = load ptr, ptr %mdl.addr, align 8
  %11 = load ptr, ptr %arr_vars.addr, align 8
  %12 = load ptr, ptr %fml.addr, align 8
  %13 = load ptr, ptr %aux_vars.addr, align 8
  call void @_ZN9spacer_qe21array_project_selectsER5modelR10ref_vectorI3app11ast_managerER7obj_refI4exprS4_ES6_(ptr noundef nonnull align 8 dereferenceable(160) %10, ptr noundef nonnull align 8 dereferenceable(16) %11, ptr noundef nonnull align 8 dereferenceable(16) %12, ptr noundef nonnull align 8 dereferenceable(16) %13)
  ret void
}