; Function Attrs: mustprogress uwtable
define hidden void @_ZN9spacer_qe13array_projectER5modelR10ref_vectorI3app11ast_managerER7obj_refI4exprS4_ES6_b(ptr noundef nonnull align 8 dereferenceable(160) %mdl, ptr noundef nonnull align 8 dereferenceable(16) %arr_vars, ptr noundef nonnull align 8 dereferenceable(16) %fml, ptr noundef nonnull align 8 dereferenceable(16) %aux_vars, i1 noundef zeroext %reduce_all_selects) local_unnamed_addr #3 personality ptr @__gxx_personality_v0 {
entry:
  %ap.i12 = alloca %"class.spacer_qe::array_project_selects_util", align 8
  %ap.i10 = alloca %"class.spacer_qe::array_select_reducer", align 8
  %ap.i = alloca %"class.spacer_qe::array_project_eqs_util", align 8
  call void @llvm.lifetime.start.p0(i64 464, ptr nonnull %ap.i)
  %0 = load ptr, ptr %arr_vars, align 8
  call void @_ZN9spacer_qe22array_project_eqs_utilC2ER11ast_manager(ptr noundef nonnull align 8 dereferenceable(464) %ap.i, ptr noundef nonnull align 8 dereferenceable(976) %0)
  invoke void @_ZN9spacer_qe22array_project_eqs_utilclER5modelR10ref_vectorI3app11ast_managerER7obj_refI4exprS5_ES7_(ptr noundef nonnull align 8 dereferenceable(464) %ap.i, ptr noundef nonnull align 8 dereferenceable(160) %mdl, ptr noundef nonnull align 8 dereferenceable(16) %arr_vars, ptr noundef nonnull align 8 dereferenceable(16) %fml, ptr noundef nonnull align 8 dereferenceable(16) %aux_vars)
          to label %_ZN9spacer_qe17array_project_eqsER5modelR10ref_vectorI3app11ast_managerER7obj_refI4exprS4_ES6_.exit unwind label %lpad.i

common.resume:                                    ; preds = %lpad.i13, %lpad.i11, %lpad.i
  %common.resume.op = phi { ptr, i32 } [ %1, %lpad.i ], [ %3, %lpad.i11 ], [ %5, %lpad.i13 ]
  resume { ptr, i32 } %common.resume.op

lpad.i:                                           ; preds = %entry
  %1 = landingpad { ptr, i32 }
          cleanup
  call void @_ZN9spacer_qe22array_project_eqs_utilD2Ev(ptr noundef nonnull align 8 dereferenceable(464) %ap.i) #18
  br label %common.resume

_ZN9spacer_qe17array_project_eqsER5modelR10ref_vectorI3app11ast_managerER7obj_refI4exprS4_ES6_.exit: ; preds = %entry
  call void @_ZN9spacer_qe22array_project_eqs_utilD2Ev(ptr noundef nonnull align 8 dereferenceable(464) %ap.i) #18
  call void @llvm.lifetime.end.p0(i64 464, ptr nonnull %ap.i)
  br i1 %reduce_all_selects, label %if.then, label %if.else

if.then:                                          ; preds = %_ZN9spacer_qe17array_project_eqsER5modelR10ref_vectorI3app11ast_managerER7obj_refI4exprS4_ES6_.exit
  call void @_ZN9spacer_qe20reduce_array_selectsER5modelR7obj_refI4expr11ast_managerE(ptr noundef nonnull align 8 dereferenceable(160) %mdl, ptr noundef nonnull align 8 dereferenceable(16) %fml)
  br label %if.end

if.else:                                          ; preds = %_ZN9spacer_qe17array_project_eqsER5modelR10ref_vectorI3app11ast_managerER7obj_refI4exprS4_ES6_.exit
  call void @llvm.lifetime.start.p0(i64 248, ptr nonnull %ap.i10)
  %2 = load ptr, ptr %arr_vars, align 8
  call void @_ZN9spacer_qe20array_select_reducerC2ER11ast_manager(ptr noundef nonnull align 8 dereferenceable(241) %ap.i10, ptr noundef nonnull align 8 dereferenceable(976) %2)
  invoke void @_ZN9spacer_qe20array_select_reducerclER5modelRK10ref_vectorI3app11ast_managerER7obj_refI4exprS5_Eb(ptr noundef nonnull align 8 dereferenceable(241) %ap.i10, ptr noundef nonnull align 8 dereferenceable(160) %mdl, ptr noundef nonnull align 8 dereferenceable(16) %arr_vars, ptr noundef nonnull align 8 dereferenceable(16) %fml, i1 noundef zeroext false)
          to label %_ZN9spacer_qe20reduce_array_selectsER5modelRK10ref_vectorI3app11ast_managerER7obj_refI4exprS4_Eb.exit unwind label %lpad.i11

lpad.i11:                                         ; preds = %if.else
  %3 = landingpad { ptr, i32 }
          cleanup
  call void @_ZN9spacer_qe20array_select_reducerD2Ev(ptr noundef nonnull align 8 dereferenceable(241) %ap.i10) #18
  br label %common.resume

_ZN9spacer_qe20reduce_array_selectsER5modelRK10ref_vectorI3app11ast_managerER7obj_refI4exprS4_Eb.exit: ; preds = %if.else
  call void @_ZN9spacer_qe20array_select_reducerD2Ev(ptr noundef nonnull align 8 dereferenceable(241) %ap.i10) #18
  call void @llvm.lifetime.end.p0(i64 248, ptr nonnull %ap.i10)
  br label %if.end

if.end:                                           ; preds = %_ZN9spacer_qe20reduce_array_selectsER5modelRK10ref_vectorI3app11ast_managerER7obj_refI4exprS4_Eb.exit, %if.then
  call void @llvm.lifetime.start.p0(i64 352, ptr nonnull %ap.i12)
  %4 = load ptr, ptr %arr_vars, align 8
  call void @_ZN9spacer_qe26array_project_selects_utilC2ER11ast_manager(ptr noundef nonnull align 8 dereferenceable(352) %ap.i12, ptr noundef nonnull align 8 dereferenceable(976) %4)
  invoke void @_ZN9spacer_qe26array_project_selects_utilclER5modelR10ref_vectorI3app11ast_managerER7obj_refI4exprS5_ES7_(ptr noundef nonnull align 8 dereferenceable(352) %ap.i12, ptr noundef nonnull align 8 dereferenceable(160) %mdl, ptr noundef nonnull align 8 dereferenceable(16) %arr_vars, ptr noundef nonnull align 8 dereferenceable(16) %fml, ptr noundef nonnull align 8 dereferenceable(16) %aux_vars)
          to label %_ZN9spacer_qe21array_project_selectsER5modelR10ref_vectorI3app11ast_managerER7obj_refI4exprS4_ES6_.exit unwind label %lpad.i13

lpad.i13:                                         ; preds = %if.end
  %5 = landingpad { ptr, i32 }
          cleanup
  call void @_ZN9spacer_qe26array_project_selects_utilD2Ev(ptr noundef nonnull align 8 dereferenceable(352) %ap.i12) #18
  br label %common.resume

_ZN9spacer_qe21array_project_selectsER5modelR10ref_vectorI3app11ast_managerER7obj_refI4exprS4_ES6_.exit: ; preds = %if.end
  call void @_ZN9spacer_qe26array_project_selects_utilD2Ev(ptr noundef nonnull align 8 dereferenceable(352) %ap.i12) #18
  call void @llvm.lifetime.end.p0(i64 352, ptr nonnull %ap.i12)
  ret void
}